target datalayout = "e-m:e-p270:32:32-p271:32:32-p272:64:64-i64:64-i128:128-f80:128-n8:16:32:64-S128"
target triple = "x86_64-pc-linux-gnu"

@rb_eArgError = external global i64, align 8
@.str = private unnamed_addr constant [18 x i8] c"too few arguments\00", align 1

; Function Attrs: nounwind sspstrong uwtable
define dso_local i64 @rb_f_sprintf(i32 noundef %0, ptr noundef %1) #0 {
  %3 = alloca i32, align 4
  %4 = alloca ptr, align 8
  store i32 %0, ptr %3, align 4, !tbaa !7
  store ptr %1, ptr %4, align 8, !tbaa !11
  %5 = load i32, ptr %3, align 4, !tbaa !7
  %6 = sub i32 %5, 1
  %7 = load ptr, ptr %4, align 8, !tbaa !11
  %8 = getelementptr i64, ptr %7, i64 1
  %9 = load i32, ptr %3, align 4, !tbaa !7
  %10 = icmp sge i32 0, %9
  br i1 %10, label %11, label %14

11:                                               ; preds = %2
  %12 = load i64, ptr @rb_eArgError, align 8, !tbaa !14
  call void (i64, ptr, ...) @rb_raise(i64 noundef %12, ptr noundef @.str) #25
  unreachable

13:                                               ; No predecessors!
  br label %18

14:                                               ; preds = %2
  %15 = load ptr, ptr %4, align 8, !tbaa !11
  %16 = getelementptr i64, ptr %15, i64 0
  %17 = load i64, ptr %16, align 8, !tbaa !14
  br label %18

18:                                               ; preds = %14, %13
  %19 = phi i64 [ 0, %13 ], [ %17, %14 ]
  %20 = call i64 @rb_str_format(i32 noundef %6, ptr noundef %8, i64 noundef %19)
  ret i64 %20
}