; Function Attrs: nounwind sspstrong uwtable
define dso_local noundef i64 @rb_f_sprintf(i32 noundef %0, ptr noundef readonly captures(none) %1) local_unnamed_addr #0 {
  %3 = icmp slt i32 %0, 1
  br i1 %3, label %4, label %6

4:                                                ; preds = %2
  %5 = load i64, ptr @rb_eArgError, align 8, !tbaa !7
  tail call void (i64, ptr, ...) @rb_raise(i64 noundef %5, ptr noundef nonnull @.str) #20
  unreachable

6:                                                ; preds = %2
  %7 = getelementptr i8, ptr %1, i64 8
  %8 = add nsw i32 %0, -1
  %9 = load i64, ptr %1, align 8, !tbaa !7
  %10 = tail call i64 @rb_str_format(i32 noundef %8, ptr noundef %7, i64 noundef %9)
  ret i64 %10
}